target datalayout = "e-m:e-p270:32:32-p271:32:32-p272:64:64-i64:64-i128:128-f80:128-n8:16:32:64-S128"
target triple = "x86_64-pc-linux-gnu"

%struct.match_attr = type { %union.anon, i8, i64, [0 x %struct.attr_state] }
%union.anon = type { %struct.pattern }
%struct.pattern = type { ptr, i32, i32, i32 }
%struct.attr_state = type { ptr, ptr }
%struct.attr_stack = type { ptr, ptr, i64, i32, i32, ptr }

@git_attr__true = dso_local constant [14 x i8] c"(builtin)true\00", align 1
@git_attr__false = dso_local constant [16 x i8] c"\00(builtin)false\00", align 16
@git_attr__unknown = internal constant [17 x i8] c"(builtin)unknown\00", align 16

; Function Attrs: nounwind uwtable
define internal void @attr_stack_free(ptr noundef %0) #0 {
  %2 = alloca ptr, align 8
  %3 = alloca i32, align 4
  %4 = alloca ptr, align 8
  %5 = alloca i64, align 8
  %6 = alloca ptr, align 8
  store ptr %0, ptr %2, align 8, !tbaa !56
  call void @llvm.lifetime.start.p0(i64 4, ptr %3) #11
  %7 = load ptr, ptr %2, align 8, !tbaa !56
  %8 = getelementptr inbounds nuw %struct.attr_stack, ptr %7, i32 0, i32 1
  %9 = load ptr, ptr %8, align 8, !tbaa !94
  call void @free(ptr noundef %9) #11
  store i32 0, ptr %3, align 4, !tbaa !13
  br label %10

10:                                               ; preds = %57, %1
  %11 = load i32, ptr %3, align 4, !tbaa !13
  %12 = load ptr, ptr %2, align 8, !tbaa !56
  %13 = getelementptr inbounds nuw %struct.attr_stack, ptr %12, i32 0, i32 3
  %14 = load i32, ptr %13, align 8, !tbaa !95
  %15 = icmp ult i32 %11, %14
  br i1 %15, label %16, label %60

16:                                               ; preds = %10
  call void @llvm.lifetime.start.p0(i64 8, ptr %4) #11
  %17 = load ptr, ptr %2, align 8, !tbaa !56
  %18 = getelementptr inbounds nuw %struct.attr_stack, ptr %17, i32 0, i32 5
  %19 = load ptr, ptr %18, align 8, !tbaa !96
  %20 = load i32, ptr %3, align 4, !tbaa !13
  %21 = zext i32 %20 to i64
  %22 = getelementptr inbounds nuw ptr, ptr %19, i64 %21
  %23 = load ptr, ptr %22, align 8, !tbaa !15
  store ptr %23, ptr %4, align 8, !tbaa !15
  call void @llvm.lifetime.start.p0(i64 8, ptr %5) #11
  store i64 0, ptr %5, align 8, !tbaa !11
  br label %24

24:                                               ; preds = %52, %16
  %25 = load i64, ptr %5, align 8, !tbaa !11
  %26 = load ptr, ptr %4, align 8, !tbaa !15
  %27 = getelementptr inbounds nuw %struct.match_attr, ptr %26, i32 0, i32 2
  %28 = load i64, ptr %27, align 8, !tbaa !11
  %29 = icmp ult i64 %25, %28
  br i1 %29, label %30, label %55

30:                                               ; preds = %24
  call void @llvm.lifetime.start.p0(i64 8, ptr %6) #11
  %31 = load ptr, ptr %4, align 8, !tbaa !15
  %32 = getelementptr inbounds nuw %struct.match_attr, ptr %31, i32 0, i32 3
  %33 = load i64, ptr %5, align 8, !tbaa !11
  %34 = getelementptr inbounds nuw [0 x %struct.attr_state], ptr %32, i64 0, i64 %33
  %35 = getelementptr inbounds nuw %struct.attr_state, ptr %34, i32 0, i32 1
  %36 = load ptr, ptr %35, align 8, !tbaa !29
  store ptr %36, ptr %6, align 8, !tbaa !9
  %37 = load ptr, ptr %6, align 8, !tbaa !9
  %38 = icmp eq ptr %37, @git_attr__true
  br i1 %38, label %48, label %39

39:                                               ; preds = %30
  %40 = load ptr, ptr %6, align 8, !tbaa !9
  %41 = icmp eq ptr %40, @git_attr__false
  br i1 %41, label %48, label %42

42:                                               ; preds = %39
  %43 = load ptr, ptr %6, align 8, !tbaa !9
  %44 = icmp eq ptr %43, null
  br i1 %44, label %48, label %45

45:                                               ; preds = %42
  %46 = load ptr, ptr %6, align 8, !tbaa !9
  %47 = icmp eq ptr %46, @git_attr__unknown
  br i1 %47, label %48, label %49

48:                                               ; preds = %45, %42, %39, %30
  br label %51

49:                                               ; preds = %45
  %50 = load ptr, ptr %6, align 8, !tbaa !9
  call void @free(ptr noundef %50) #11
  br label %51

51:                                               ; preds = %49, %48
  call void @llvm.lifetime.end.p0(i64 8, ptr %6) #11
  br label %52

52:                                               ; preds = %51
  %53 = load i64, ptr %5, align 8, !tbaa !11
  %54 = add i64 %53, 1
  store i64 %54, ptr %5, align 8, !tbaa !11
  br label %24, !llvm.loop !97

55:                                               ; preds = %24
  %56 = load ptr, ptr %4, align 8, !tbaa !15
  call void @free(ptr noundef %56) #11
  call void @llvm.lifetime.end.p0(i64 8, ptr %5) #11
  call void @llvm.lifetime.end.p0(i64 8, ptr %4) #11
  br label %57

57:                                               ; preds = %55
  %58 = load i32, ptr %3, align 4, !tbaa !13
  %59 = add i32 %58, 1
  store i32 %59, ptr %3, align 4, !tbaa !13
  br label %10, !llvm.loop !98

60:                                               ; preds = %10
  %61 = load ptr, ptr %2, align 8, !tbaa !56
  %62 = getelementptr inbounds nuw %struct.attr_stack, ptr %61, i32 0, i32 5
  %63 = load ptr, ptr %62, align 8, !tbaa !96
  call void @free(ptr noundef %63) #11
  %64 = load ptr, ptr %2, align 8, !tbaa !56
  call void @free(ptr noundef %64) #11
  call void @llvm.lifetime.end.p0(i64 4, ptr %3) #11
  ret void
}