; Function Attrs: nounwind uwtable
define internal fastcc void @attr_stack_free(ptr noundef captures(none) %0) unnamed_addr #1 {
  %2 = getelementptr inbounds nuw i8, ptr %0, i64 8
  %3 = load ptr, ptr %2, align 8, !tbaa !64
  tail call void @free(ptr noundef %3) #21
  %4 = getelementptr inbounds nuw i8, ptr %0, i64 24
  %5 = load i32, ptr %4, align 8, !tbaa !65
  %.not = icmp eq i32 %5, 0
  br i1 %.not, label %._crit_edge29, label %.lr.ph28

.lr.ph28:                                         ; preds = %1
  %6 = getelementptr inbounds nuw i8, ptr %0, i64 32
  br label %7

7:                                                ; preds = %.lr.ph28, %._crit_edge
  %indvars.iv = phi i64 [ 0, %.lr.ph28 ], [ %indvars.iv.next, %._crit_edge ]
  %8 = load ptr, ptr %6, align 8, !tbaa !66
  %9 = getelementptr inbounds nuw ptr, ptr %8, i64 %indvars.iv
  %10 = load ptr, ptr %9, align 8, !tbaa !67
  %11 = getelementptr inbounds nuw i8, ptr %10, i64 32
  %12 = load i64, ptr %11, align 8, !tbaa !31
  %.not30 = icmp eq i64 %12, 0
  br i1 %.not30, label %._crit_edge, label %.lr.ph

.lr.ph:                                           ; preds = %7
  %13 = getelementptr i8, ptr %10, i64 48
  br label %14

14:                                               ; preds = %.lr.ph, %23
  %15 = phi i64 [ %12, %.lr.ph ], [ %24, %23 ]
  %.02325 = phi i64 [ 0, %.lr.ph ], [ %25, %23 ]
  %.idx = shl nuw nsw i64 %.02325, 4
  %16 = getelementptr i8, ptr %13, i64 %.idx
  %17 = load ptr, ptr %16, align 8, !tbaa !33
  %18 = icmp eq ptr %17, @git_attr__true
  %19 = icmp eq ptr %17, @git_attr__false
  %or.cond = or i1 %18, %19
  %20 = icmp eq ptr %17, null
  %or.cond3 = or i1 %20, %or.cond
  %21 = icmp eq ptr %17, @git_attr__unknown
  %or.cond5 = or i1 %21, %or.cond3
  br i1 %or.cond5, label %23, label %22

22:                                               ; preds = %14
  tail call void @free(ptr noundef %17) #21
  %.pre = load i64, ptr %11, align 8, !tbaa !31
  br label %23

23:                                               ; preds = %14, %22
  %24 = phi i64 [ %15, %14 ], [ %.pre, %22 ]
  %25 = add nuw i64 %.02325, 1
  %26 = icmp ult i64 %25, %24
  br i1 %26, label %14, label %._crit_edge, !llvm.loop !69

._crit_edge:                                      ; preds = %23, %7
  tail call void @free(ptr noundef nonnull %10) #21
  %indvars.iv.next = add nuw nsw i64 %indvars.iv, 1
  %27 = load i32, ptr %4, align 8, !tbaa !65
  %28 = zext i32 %27 to i64
  %29 = icmp samesign ult i64 %indvars.iv.next, %28
  br i1 %29, label %7, label %._crit_edge29, !llvm.loop !70

._crit_edge29:                                    ; preds = %._crit_edge, %1
  %30 = getelementptr inbounds nuw i8, ptr %0, i64 32
  %31 = load ptr, ptr %30, align 8, !tbaa !66
  tail call void @free(ptr noundef %31) #21
  tail call void @free(ptr noundef nonnull %0) #21
  ret void
}